; ModuleID = '55/367.c'
source_filename = "55/367.c"
target datalayout = "e-m:e-p270:32:32-p271:32:32-p272:64:64-i64:64-f80:128-n8:16:32:64-S128"
target triple = "x86_64-pc-linux-gnu"

@.str = private unnamed_addr constant [7 x i8] c"%d%s%d\00", align 1
@.str.1 = private unnamed_addr constant [3 x i8] c"%c\00", align 1

; Function Attrs: noinline nounwind uwtable
define dso_local void @main() #0 {
  %1 = alloca [1000 x i8], align 16
  %2 = alloca [1000 x i8], align 16
  %3 = alloca [1000 x i32], align 16
  %4 = alloca [1000 x i32], align 16
  %5 = alloca i32, align 4
  %6 = alloca i32, align 4
  %7 = alloca i32, align 4
  %8 = alloca i32, align 4
  %9 = alloca i32, align 4
  %10 = alloca i32, align 4
  %11 = alloca i32, align 4
  %12 = getelementptr inbounds [1000 x i8], [1000 x i8]* %1, i64 0, i64 0
  %13 = call i32 (i8*, ...) @__isoc99_scanf(i8* getelementptr inbounds ([7 x i8], [7 x i8]* @.str, i64 0, i64 0), i32* %7, i8* %12, i32* %8)
  %14 = getelementptr inbounds [1000 x i8], [1000 x i8]* %1, i64 0, i64 0
  %15 = call i64 @strlen(i8* %14) #3
  %16 = trunc i64 %15 to i32
  store i32 %16, i32* %11, align 4
  store i32 0, i32* %9, align 4
  br label %17

17:                                               ; preds = %125, %0
  %18 = load i32, i32* %9, align 4
  %19 = load i32, i32* %11, align 4
  %20 = icmp slt i32 %18, %19
  br i1 %20, label %21, label %128

21:                                               ; preds = %17
  %22 = load i32, i32* %11, align 4
  %23 = sub nsw i32 %22, 1
  %24 = load i32, i32* %9, align 4
  %25 = sub nsw i32 %23, %24
  %26 = sext i32 %25 to i64
  %27 = getelementptr inbounds [1000 x i8], [1000 x i8]* %1, i64 0, i64 %26
  %28 = load i8, i8* %27, align 1
  %29 = sext i8 %28 to i32
  %30 = icmp sge i32 %29, 48
  br i1 %30, label %31, label %54

31:                                               ; preds = %21
  %32 = load i32, i32* %11, align 4
  %33 = sub nsw i32 %32, 1
  %34 = load i32, i32* %9, align 4
  %35 = sub nsw i32 %33, %34
  %36 = sext i32 %35 to i64
  %37 = getelementptr inbounds [1000 x i8], [1000 x i8]* %1, i64 0, i64 %36
  %38 = load i8, i8* %37, align 1
  %39 = sext i8 %38 to i32
  %40 = icmp sle i32 %39, 57
  br i1 %40, label %41, label %54

41:                                               ; preds = %31
  %42 = load i32, i32* %11, align 4
  %43 = load i32, i32* %9, align 4
  %44 = sub nsw i32 %42, %43
  %45 = sub nsw i32 %44, 1
  %46 = sext i32 %45 to i64
  %47 = getelementptr inbounds [1000 x i8], [1000 x i8]* %1, i64 0, i64 %46
  %48 = load i8, i8* %47, align 1
  %49 = sext i8 %48 to i32
  %50 = sub nsw i32 %49, 48
  %51 = load i32, i32* %9, align 4
  %52 = sext i32 %51 to i64
  %53 = getelementptr inbounds [1000 x i32], [1000 x i32]* %3, i64 0, i64 %52
  store i32 %50, i32* %53, align 4
  br label %124

54:                                               ; preds = %31, %21
  %55 = load i32, i32* %11, align 4
  %56 = sub nsw i32 %55, 1
  %57 = load i32, i32* %9, align 4
  %58 = sub nsw i32 %56, %57
  %59 = sext i32 %58 to i64
  %60 = getelementptr inbounds [1000 x i8], [1000 x i8]* %1, i64 0, i64 %59
  %61 = load i8, i8* %60, align 1
  %62 = sext i8 %61 to i32
  %63 = icmp sge i32 %62, 97
  br i1 %63, label %64, label %88

64:                                               ; preds = %54
  %65 = load i32, i32* %11, align 4
  %66 = sub nsw i32 %65, 1
  %67 = load i32, i32* %9, align 4
  %68 = sub nsw i32 %66, %67
  %69 = sext i32 %68 to i64
  %70 = getelementptr inbounds [1000 x i8], [1000 x i8]* %1, i64 0, i64 %69
  %71 = load i8, i8* %70, align 1
  %72 = sext i8 %71 to i32
  %73 = icmp sle i32 %72, 122
  br i1 %73, label %74, label %88

74:                                               ; preds = %64
  %75 = load i32, i32* %11, align 4
  %76 = load i32, i32* %9, align 4
  %77 = sub nsw i32 %75, %76
  %78 = sub nsw i32 %77, 1
  %79 = sext i32 %78 to i64
  %80 = getelementptr inbounds [1000 x i8], [1000 x i8]* %1, i64 0, i64 %79
  %81 = load i8, i8* %80, align 1
  %82 = sext i8 %81 to i32
  %83 = sub nsw i32 %82, 97
  %84 = add nsw i32 %83, 10
  %85 = load i32, i32* %9, align 4
  %86 = sext i32 %85 to i64
  %87 = getelementptr inbounds [1000 x i32], [1000 x i32]* %3, i64 0, i64 %86
  store i32 %84, i32* %87, align 4
  br label %123

88:                                               ; preds = %64, %54
  %89 = load i32, i32* %11, align 4
  %90 = sub nsw i32 %89, 1
  %91 = load i32, i32* %9, align 4
  %92 = sub nsw i32 %90, %91
  %93 = sext i32 %92 to i64
  %94 = getelementptr inbounds [1000 x i8], [1000 x i8]* %1, i64 0, i64 %93
  %95 = load i8, i8* %94, align 1
  %96 = sext i8 %95 to i32
  %97 = icmp sge i32 %96, 65
  br i1 %97, label %98, label %122

98:                                               ; preds = %88
  %99 = load i32, i32* %11, align 4
  %100 = sub nsw i32 %99, 1
  %101 = load i32, i32* %9, align 4
  %102 = sub nsw i32 %100, %101
  %103 = sext i32 %102 to i64
  %104 = getelementptr inbounds [1000 x i8], [1000 x i8]* %1, i64 0, i64 %103
  %105 = load i8, i8* %104, align 1
  %106 = sext i8 %105 to i32
  %107 = icmp sle i32 %106, 90
  br i1 %107, label %108, label %122

108:                                              ; preds = %98
  %109 = load i32, i32* %11, align 4
  %110 = load i32, i32* %9, align 4
  %111 = sub nsw i32 %109, %110
  %112 = sub nsw i32 %111, 1
  %113 = sext i32 %112 to i64
  %114 = getelementptr inbounds [1000 x i8], [1000 x i8]* %1, i64 0, i64 %113
  %115 = load i8, i8* %114, align 1
  %116 = sext i8 %115 to i32
  %117 = sub nsw i32 %116, 65
  %118 = add nsw i32 %117, 10
  %119 = load i32, i32* %9, align 4
  %120 = sext i32 %119 to i64
  %121 = getelementptr inbounds [1000 x i32], [1000 x i32]* %3, i64 0, i64 %120
  store i32 %118, i32* %121, align 4
  br label %122

122:                                              ; preds = %108, %98, %88
  br label %123

123:                                              ; preds = %122, %74
  br label %124

124:                                              ; preds = %123, %41
  br label %125

125:                                              ; preds = %124
  %126 = load i32, i32* %9, align 4
  %127 = add nsw i32 %126, 1
  store i32 %127, i32* %9, align 4
  br label %17

128:                                              ; preds = %17
  store i32 1, i32* %5, align 4
  store i32 0, i32* %6, align 4
  store i32 0, i32* %9, align 4
  br label %129

129:                                              ; preds = %145, %128
  %130 = load i32, i32* %9, align 4
  %131 = load i32, i32* %11, align 4
  %132 = icmp slt i32 %130, %131
  br i1 %132, label %133, label %148

133:                                              ; preds = %129
  %134 = load i32, i32* %9, align 4
  %135 = sext i32 %134 to i64
  %136 = getelementptr inbounds [1000 x i32], [1000 x i32]* %3, i64 0, i64 %135
  %137 = load i32, i32* %136, align 4
  %138 = load i32, i32* %5, align 4
  %139 = mul nsw i32 %137, %138
  %140 = load i32, i32* %6, align 4
  %141 = add nsw i32 %140, %139
  store i32 %141, i32* %6, align 4
  %142 = load i32, i32* %7, align 4
  %143 = load i32, i32* %5, align 4
  %144 = mul nsw i32 %143, %142
  store i32 %144, i32* %5, align 4
  br label %145

145:                                              ; preds = %133
  %146 = load i32, i32* %9, align 4
  %147 = add nsw i32 %146, 1
  store i32 %147, i32* %9, align 4
  br label %129

148:                                              ; preds = %129
  store i32 0, i32* %9, align 4
  %149 = load i32, i32* %6, align 4
  %150 = icmp ne i32 %149, 0
  br i1 %150, label %151, label %170

151:                                              ; preds = %148
  br label %152

152:                                              ; preds = %155, %151
  %153 = load i32, i32* %6, align 4
  %154 = icmp ne i32 %153, 0
  br i1 %154, label %155, label %167

155:                                              ; preds = %152
  %156 = load i32, i32* %6, align 4
  %157 = load i32, i32* %8, align 4
  %158 = srem i32 %156, %157
  %159 = load i32, i32* %9, align 4
  %160 = sext i32 %159 to i64
  %161 = getelementptr inbounds [1000 x i32], [1000 x i32]* %4, i64 0, i64 %160
  store i32 %158, i32* %161, align 4
  %162 = load i32, i32* %6, align 4
  %163 = load i32, i32* %8, align 4
  %164 = sdiv i32 %162, %163
  store i32 %164, i32* %6, align 4
  %165 = load i32, i32* %9, align 4
  %166 = add nsw i32 %165, 1
  store i32 %166, i32* %9, align 4
  br label %152

167:                                              ; preds = %152
  %168 = load i32, i32* %9, align 4
  %169 = add nsw i32 %168, -1
  store i32 %169, i32* %9, align 4
  br label %170

170:                                              ; preds = %167, %148
  %171 = load i32, i32* %9, align 4
  store i32 %171, i32* %10, align 4
  br label %172

172:                                              ; preds = %215, %170
  %173 = load i32, i32* %10, align 4
  %174 = icmp sge i32 %173, 0
  br i1 %174, label %175, label %218

175:                                              ; preds = %172
  %176 = load i32, i32* %10, align 4
  %177 = sext i32 %176 to i64
  %178 = getelementptr inbounds [1000 x i32], [1000 x i32]* %4, i64 0, i64 %177
  %179 = load i32, i32* %178, align 4
  %180 = icmp slt i32 %179, 10
  br i1 %180, label %181, label %197

181:                                              ; preds = %175
  %182 = load i32, i32* %10, align 4
  %183 = sext i32 %182 to i64
  %184 = getelementptr inbounds [1000 x i32], [1000 x i32]* %4, i64 0, i64 %183
  %185 = load i32, i32* %184, align 4
  %186 = add nsw i32 %185, 48
  %187 = trunc i32 %186 to i8
  %188 = load i32, i32* %10, align 4
  %189 = sext i32 %188 to i64
  %190 = getelementptr inbounds [1000 x i8], [1000 x i8]* %2, i64 0, i64 %189
  store i8 %187, i8* %190, align 1
  %191 = load i32, i32* %10, align 4
  %192 = sext i32 %191 to i64
  %193 = getelementptr inbounds [1000 x i8], [1000 x i8]* %2, i64 0, i64 %192
  %194 = load i8, i8* %193, align 1
  %195 = sext i8 %194 to i32
  %196 = call i32 (i8*, ...) @printf(i8* getelementptr inbounds ([3 x i8], [3 x i8]* @.str.1, i64 0, i64 0), i32 %195)
  br label %214

197:                                              ; preds = %175
  %198 = load i32, i32* %10, align 4
  %199 = sext i32 %198 to i64
  %200 = getelementptr inbounds [1000 x i32], [1000 x i32]* %4, i64 0, i64 %199
  %201 = load i32, i32* %200, align 4
  %202 = add nsw i32 %201, 65
  %203 = sub nsw i32 %202, 10
  %204 = trunc i32 %203 to i8
  %205 = load i32, i32* %10, align 4
  %206 = sext i32 %205 to i64
  %207 = getelementptr inbounds [1000 x i8], [1000 x i8]* %2, i64 0, i64 %206
  store i8 %204, i8* %207, align 1
  %208 = load i32, i32* %10, align 4
  %209 = sext i32 %208 to i64
  %210 = getelementptr inbounds [1000 x i8], [1000 x i8]* %2, i64 0, i64 %209
  %211 = load i8, i8* %210, align 1
  %212 = sext i8 %211 to i32
  %213 = call i32 (i8*, ...) @printf(i8* getelementptr inbounds ([3 x i8], [3 x i8]* @.str.1, i64 0, i64 0), i32 %212)
  br label %214

214:                                              ; preds = %197, %181
  br label %215

215:                                              ; preds = %214
  %216 = load i32, i32* %10, align 4
  %217 = add nsw i32 %216, -1
  store i32 %217, i32* %10, align 4
  br label %172

218:                                              ; preds = %172
  ret void
}

declare dso_local i32 @__isoc99_scanf(i8*, ...) #1

; Function Attrs: nounwind readonly
declare dso_local i64 @strlen(i8*) #2

declare dso_local i32 @printf(i8*, ...) #1


!llvm.module.flags = !{!0}
!llvm.ident = !{!1}

!0 = !{i32 1, !"wchar_size", i32 4}
!1 = !{!"clang version 10.0.0-4ubuntu1 "}
